target datalayout = "e-m:e-p270:32:32-p271:32:32-p272:64:64-i64:64-i128:128-f80:128-n8:16:32:64-S128"
target triple = "x86_64-pc-linux-gnu"

%struct._priv_exr_context_t = type { i8, i8, i8, i8, i8, i8, i8, i8, %struct.exr_attr_string_t, %struct.exr_attr_string_t, ptr, ptr, ptr, ptr, ptr, ptr, ptr, ptr, i32, i32, i32, i32, i32, float, ptr, ptr, ptr, i64, ptr, ptr, i64, i32, i32, i32, i32, %struct._priv_exr_part_t, ptr, ptr, %struct.exr_attribute_list, %union.pthread_mutex_t, i8, i8, [2 x i8], i32 }
%struct.exr_attr_string_t = type { i32, i32, ptr }
%struct._priv_exr_part_t = type { i32, i32, %struct.exr_attribute_list, ptr, ptr, ptr, ptr, ptr, ptr, ptr, ptr, ptr, ptr, ptr, ptr, ptr, ptr, %struct.exr_attr_box2i_t, %struct.exr_attr_box2i_t, i32, i32, i32, float, i32, i32, ptr, ptr, ptr, ptr, i64, i16, i16, i32, i64, i64 }
%struct.exr_attr_box2i_t = type { %struct.exr_attr_v2i_t, %struct.exr_attr_v2i_t }
%struct.exr_attr_v2i_t = type { i32, i32 }
%struct.exr_attribute_list = type { i32, i32, ptr, ptr }
%union.pthread_mutex_t = type { %struct.__pthread_mutex_s }
%struct.__pthread_mutex_s = type { i32, i32, i32, i32, i32, i16, i16, %struct.__pthread_internal_list }
%struct.__pthread_internal_list = type { ptr, ptr }

@.str = private unnamed_addr constant [29 x i8] c"Part index (%d) out of range\00", align 1

; Function Attrs: inlinehint nounwind uwtable
define internal void @internal_exr_unlock(ptr noundef %0) #2 {
  %2 = alloca ptr, align 8
  %3 = alloca ptr, align 8
  store ptr %0, ptr %2, align 8, !tbaa !3
  call void @llvm.lifetime.start.p0(i64 8, ptr %3) #8
  %4 = load ptr, ptr %2, align 8, !tbaa !3
  %5 = ptrtoint ptr %4 to i64
  %6 = inttoptr i64 %5 to ptr
  store ptr %6, ptr %3, align 8, !tbaa !3
  %7 = load ptr, ptr %3, align 8, !tbaa !3
  %8 = getelementptr inbounds nuw %struct._priv_exr_context_t, ptr %7, i32 0, i32 39
  %9 = call i32 @pthread_mutex_unlock(ptr noundef %8) #8
  call void @llvm.lifetime.end.p0(i64 8, ptr %3) #8
  ret void
}

; Function Attrs: inlinehint nounwind uwtable
define internal void @internal_exr_lock(ptr noundef %0) #2 {
  %2 = alloca ptr, align 8
  %3 = alloca ptr, align 8
  store ptr %0, ptr %2, align 8, !tbaa !3
  call void @llvm.lifetime.start.p0(i64 8, ptr %3) #8
  %4 = load ptr, ptr %2, align 8, !tbaa !3
  %5 = ptrtoint ptr %4 to i64
  %6 = inttoptr i64 %5 to ptr
  store ptr %6, ptr %3, align 8, !tbaa !3
  %7 = load ptr, ptr %3, align 8, !tbaa !3
  %8 = getelementptr inbounds nuw %struct._priv_exr_context_t, ptr %7, i32 0, i32 39
  %9 = call i32 @pthread_mutex_lock(ptr noundef %8) #8
  call void @llvm.lifetime.end.p0(i64 8, ptr %3) #8
  ret void
}

; Function Attrs: nounwind uwtable
define i32 @exr_attr_declare(ptr noundef %0, i32 noundef %1, ptr noundef %2, i32 noundef %3, ptr noundef %4) #0 {
  %6 = alloca i32, align 4
  %7 = alloca ptr, align 8
  %8 = alloca i32, align 4
  %9 = alloca ptr, align 8
  %10 = alloca i32, align 4
  %11 = alloca ptr, align 8
  %12 = alloca i32, align 4
  %13 = alloca ptr, align 8
  %14 = alloca i32, align 4
  store ptr %0, ptr %7, align 8, !tbaa !3
  store i32 %1, ptr %8, align 4, !tbaa !8
  store ptr %2, ptr %9, align 8, !tbaa !36
  store i32 %3, ptr %10, align 4, !tbaa !8
  store ptr %4, ptr %11, align 8, !tbaa !32
  call void @llvm.lifetime.start.p0(i64 4, ptr %12) #8
  call void @llvm.lifetime.start.p0(i64 8, ptr %13) #8
  %15 = load ptr, ptr %7, align 8, !tbaa !3
  %16 = icmp ne ptr %15, null
  br i1 %16, label %18, label %17

17:                                               ; preds = %5
  store i32 2, ptr %6, align 4
  store i32 1, ptr %14, align 4
  br label %72

18:                                               ; preds = %5
  %19 = load ptr, ptr %7, align 8, !tbaa !3
  call void @internal_exr_lock(ptr noundef %19)
  %20 = load i32, ptr %8, align 4, !tbaa !8
  %21 = icmp slt i32 %20, 0
  br i1 %21, label %28, label %22

22:                                               ; preds = %18
  %23 = load i32, ptr %8, align 4, !tbaa !8
  %24 = load ptr, ptr %7, align 8, !tbaa !3
  %25 = getelementptr inbounds nuw %struct._priv_exr_context_t, ptr %24, i32 0, i32 34
  %26 = load i32, ptr %25, align 4, !tbaa !26
  %27 = icmp sge i32 %23, %26
  br i1 %27, label %28, label %36

28:                                               ; preds = %22, %18
  %29 = load ptr, ptr %7, align 8, !tbaa !3
  call void @internal_exr_unlock(ptr noundef %29)
  %30 = load ptr, ptr %7, align 8, !tbaa !3
  %31 = getelementptr inbounds nuw %struct._priv_exr_context_t, ptr %30, i32 0, i32 14
  %32 = load ptr, ptr %31, align 8, !tbaa !27
  %33 = load ptr, ptr %7, align 8, !tbaa !3
  %34 = load i32, ptr %8, align 4, !tbaa !8
  %35 = call i32 (ptr, i32, ptr, ...) %32(ptr noundef %33, i32 noundef 4, ptr noundef @.str, i32 noundef %34)
  store i32 %35, ptr %6, align 4
  store i32 1, ptr %14, align 4
  br label %72

36:                                               ; preds = %22
  %37 = load ptr, ptr %7, align 8, !tbaa !3
  %38 = getelementptr inbounds nuw %struct._priv_exr_context_t, ptr %37, i32 0, i32 37
  %39 = load ptr, ptr %38, align 8, !tbaa !28
  %40 = load i32, ptr %8, align 4, !tbaa !8
  %41 = sext i32 %40 to i64
  %42 = getelementptr inbounds ptr, ptr %39, i64 %41
  %43 = load ptr, ptr %42, align 8, !tbaa !29
  store ptr %43, ptr %13, align 8, !tbaa !29
  %44 = load ptr, ptr %7, align 8, !tbaa !3
  %45 = getelementptr inbounds nuw %struct._priv_exr_context_t, ptr %44, i32 0, i32 0
  %46 = load i8, ptr %45, align 8, !tbaa !12
  %47 = zext i8 %46 to i32
  %48 = icmp ne i32 %47, 1
  br i1 %48, label %49, label %62

49:                                               ; preds = %36
  %50 = load ptr, ptr %7, align 8, !tbaa !3
  %51 = getelementptr inbounds nuw %struct._priv_exr_context_t, ptr %50, i32 0, i32 0
  %52 = load i8, ptr %51, align 8, !tbaa !12
  %53 = zext i8 %52 to i32
  %54 = icmp ne i32 %53, 4
  br i1 %54, label %55, label %62

55:                                               ; preds = %49
  %56 = load ptr, ptr %7, align 8, !tbaa !3
  call void @internal_exr_unlock(ptr noundef %56)
  %57 = load ptr, ptr %7, align 8, !tbaa !3
  %58 = getelementptr inbounds nuw %struct._priv_exr_context_t, ptr %57, i32 0, i32 12
  %59 = load ptr, ptr %58, align 8, !tbaa !31
  %60 = load ptr, ptr %7, align 8, !tbaa !3
  %61 = call i32 %59(ptr noundef %60, i32 noundef 8)
  store i32 %61, ptr %6, align 4
  store i32 1, ptr %14, align 4
  br label %72

62:                                               ; preds = %49, %36
  %63 = load ptr, ptr %7, align 8, !tbaa !3
  %64 = load ptr, ptr %13, align 8, !tbaa !29
  %65 = getelementptr inbounds nuw %struct._priv_exr_part_t, ptr %64, i32 0, i32 2
  %66 = load ptr, ptr %9, align 8, !tbaa !36
  %67 = load i32, ptr %10, align 4, !tbaa !8
  %68 = load ptr, ptr %11, align 8, !tbaa !32
  %69 = call i32 @exr_attr_list_add(ptr noundef %63, ptr noundef %65, ptr noundef %66, i32 noundef %67, i32 noundef 0, ptr noundef null, ptr noundef %68)
  store i32 %69, ptr %12, align 4, !tbaa !8
  %70 = load ptr, ptr %7, align 8, !tbaa !3
  call void @internal_exr_unlock(ptr noundef %70)
  %71 = load i32, ptr %12, align 4, !tbaa !8
  store i32 %71, ptr %6, align 4
  store i32 1, ptr %14, align 4
  br label %72

72:                                               ; preds = %62, %55, %28, %17
  call void @llvm.lifetime.end.p0(i64 8, ptr %13) #8
  call void @llvm.lifetime.end.p0(i64 4, ptr %12) #8
  %73 = load i32, ptr %6, align 4
  ret i32 %73
}