; Function Attrs: nounwind uwtable
define i32 @exr_attr_declare(ptr noundef %0, i32 noundef %1, ptr noundef %2, i32 noundef %3, ptr noundef %4) local_unnamed_addr #0 {
  %.not = icmp eq ptr %0, null
  br i1 %.not, label %34, label %6

6:                                                ; preds = %5
  %7 = getelementptr inbounds nuw i8, ptr %0, i64 504
  %8 = tail call i32 @pthread_mutex_lock(ptr noundef nonnull %7) #6
  %9 = icmp slt i32 %1, 0
  br i1 %9, label %13, label %10

10:                                               ; preds = %6
  %11 = getelementptr inbounds nuw i8, ptr %0, i64 196
  %12 = load i32, ptr %11, align 4, !tbaa !22
  %.not26 = icmp slt i32 %1, %12
  br i1 %.not26, label %18, label %13

13:                                               ; preds = %10, %6
  %14 = tail call i32 @pthread_mutex_unlock(ptr noundef nonnull %7) #6
  %15 = getelementptr inbounds nuw i8, ptr %0, i64 72
  %16 = load ptr, ptr %15, align 8, !tbaa !23
  %17 = tail call i32 (ptr, i32, ptr, ...) %16(ptr noundef nonnull %0, i32 noundef 4, ptr noundef nonnull @.str, i32 noundef %1) #6
  br label %34

18:                                               ; preds = %10
  %19 = load i8, ptr %0, align 8, !tbaa !3
  switch i8 %19, label %20 [
    i8 1, label %25
    i8 4, label %25
  ]

20:                                               ; preds = %18
  %21 = tail call i32 @pthread_mutex_unlock(ptr noundef nonnull %7) #6
  %22 = getelementptr inbounds nuw i8, ptr %0, i64 56
  %23 = load ptr, ptr %22, align 8, !tbaa !27
  %24 = tail call i32 %23(ptr noundef nonnull %0, i32 noundef 8) #6
  br label %34

25:                                               ; preds = %18, %18
  %26 = getelementptr inbounds nuw i8, ptr %0, i64 472
  %27 = load ptr, ptr %26, align 8, !tbaa !24
  %28 = zext nneg i32 %1 to i64
  %29 = getelementptr inbounds nuw ptr, ptr %27, i64 %28
  %30 = load ptr, ptr %29, align 8, !tbaa !25
  %31 = getelementptr inbounds nuw i8, ptr %30, i64 8
  %32 = tail call i32 @exr_attr_list_add(ptr noundef nonnull %0, ptr noundef nonnull %31, ptr noundef %2, i32 noundef %3, i32 noundef 0, ptr noundef null, ptr noundef %4) #6
  %33 = tail call i32 @pthread_mutex_unlock(ptr noundef nonnull %7) #6
  br label %34

34:                                               ; preds = %5, %25, %20, %13
  %.0 = phi i32 [ %17, %13 ], [ %24, %20 ], [ %32, %25 ], [ 2, %5 ]
  ret i32 %.0
}